; Function Attrs: nounwind uwtable
define internal range(i32 0, 2) i32 @reset_widget_idm1066(ptr readnone captures(none) %0, ptr noundef readonly captures(none) %1, ptr noundef %2) #0 {
  %4 = load i32, ptr %1, align 8, !tbaa !54
  %5 = icmp eq i32 %4, 5
  br i1 %5, label %6, label %7

6:                                                ; preds = %3
  tail call void @dt_bauhaus_widget_reset(ptr noundef %2) #12
  br label %7

7:                                                ; preds = %3, %6
  %.0 = phi i32 [ 1, %6 ], [ 0, %3 ]
  ret i32 %.0
}